target datalayout = "e-m:e-p270:32:32-p271:32:32-p272:64:64-i64:64-i128:128-f80:128-n8:16:32:64-S128"
target triple = "x86_64-unknown-linux-gnu"

%"struct.Imf_3_2::DeepTiledInputFile::Data" = type <{ %"class.std::mutex", %"class.Imf_3_2::Header", %"class.Imf_3_2::TileDescription", i32, [4 x i8], %"class.Imf_3_2::DeepFrameBuffer", i32, i32, i32, i32, i32, i32, i32, [4 x i8], ptr, ptr, %"class.Imf_3_2::TileOffsets", i8, [7 x i8], %"class.std::vector.11", i32, i8, [3 x i8], i32, [4 x i8], ptr, %"class.std::vector.16", i8, [7 x i8], ptr, i64, i64, i32, i32, %"class.Imf_3_2::Array", ptr, i64, i32, [4 x i8], ptr, i8, [7 x i8] }>
%"class.std::mutex" = type { %"class.std::__mutex_base" }
%"class.std::__mutex_base" = type { %union.pthread_mutex_t }
%union.pthread_mutex_t = type { %struct.__pthread_mutex_s }
%struct.__pthread_mutex_s = type { i32, i32, i32, i32, i32, i16, i16, %struct.__pthread_internal_list }
%struct.__pthread_internal_list = type { ptr, ptr }
%"class.Imf_3_2::Header" = type <{ %"class.std::map", i8, [7 x i8] }>
%"class.std::map" = type { %"class.std::_Rb_tree" }
%"class.std::_Rb_tree" = type { %"struct.std::_Rb_tree<Imf_3_2::Name, std::pair<const Imf_3_2::Name, Imf_3_2::Attribute *>, std::_Select1st<std::pair<const Imf_3_2::Name, Imf_3_2::Attribute *>>, std::less<Imf_3_2::Name>>::_Rb_tree_impl" }
%"struct.std::_Rb_tree<Imf_3_2::Name, std::pair<const Imf_3_2::Name, Imf_3_2::Attribute *>, std::_Select1st<std::pair<const Imf_3_2::Name, Imf_3_2::Attribute *>>, std::less<Imf_3_2::Name>>::_Rb_tree_impl" = type { %"struct.std::_Rb_tree_key_compare", %"struct.std::_Rb_tree_header" }
%"struct.std::_Rb_tree_key_compare" = type { %"struct.std::less" }
%"struct.std::less" = type { i8 }
%"struct.std::_Rb_tree_header" = type { %"struct.std::_Rb_tree_node_base", i64 }
%"struct.std::_Rb_tree_node_base" = type { i32, ptr, ptr, ptr }
%"class.Imf_3_2::TileDescription" = type { i32, i32, i32, i32 }
%"class.Imf_3_2::DeepFrameBuffer" = type { %"class.std::map.3", %"struct.Imf_3_2::Slice" }
%"class.std::map.3" = type { %"class.std::_Rb_tree.4" }
%"class.std::_Rb_tree.4" = type { %"struct.std::_Rb_tree<Imf_3_2::Name, std::pair<const Imf_3_2::Name, Imf_3_2::DeepSlice>, std::_Select1st<std::pair<const Imf_3_2::Name, Imf_3_2::DeepSlice>>, std::less<Imf_3_2::Name>>::_Rb_tree_impl" }
%"struct.std::_Rb_tree<Imf_3_2::Name, std::pair<const Imf_3_2::Name, Imf_3_2::DeepSlice>, std::_Select1st<std::pair<const Imf_3_2::Name, Imf_3_2::DeepSlice>>, std::less<Imf_3_2::Name>>::_Rb_tree_impl" = type { %"struct.std::_Rb_tree_key_compare", %"struct.std::_Rb_tree_header" }
%"struct.Imf_3_2::Slice" = type <{ i32, [4 x i8], ptr, i64, i64, i32, i32, double, i8, i8, [6 x i8] }>
%"class.Imf_3_2::TileOffsets" = type { i32, i32, i32, %"class.std::vector" }
%"class.std::vector" = type { %"struct.std::_Vector_base" }
%"struct.std::_Vector_base" = type { %"struct.std::_Vector_base<std::vector<std::vector<unsigned long>>, std::allocator<std::vector<std::vector<unsigned long>>>>::_Vector_impl" }
%"struct.std::_Vector_base<std::vector<std::vector<unsigned long>>, std::allocator<std::vector<std::vector<unsigned long>>>>::_Vector_impl" = type { %"struct.std::_Vector_base<std::vector<std::vector<unsigned long>>, std::allocator<std::vector<std::vector<unsigned long>>>>::_Vector_impl_data" }
%"struct.std::_Vector_base<std::vector<std::vector<unsigned long>>, std::allocator<std::vector<std::vector<unsigned long>>>>::_Vector_impl_data" = type { ptr, ptr, ptr }
%"class.std::vector.11" = type { %"struct.std::_Vector_base.12" }
%"struct.std::_Vector_base.12" = type { %"struct.std::_Vector_base<Imf_3_2::(anonymous namespace)::TInSliceInfo *, std::allocator<Imf_3_2::(anonymous namespace)::TInSliceInfo *>>::_Vector_impl" }
%"struct.std::_Vector_base<Imf_3_2::(anonymous namespace)::TInSliceInfo *, std::allocator<Imf_3_2::(anonymous namespace)::TInSliceInfo *>>::_Vector_impl" = type { %"struct.std::_Vector_base<Imf_3_2::(anonymous namespace)::TInSliceInfo *, std::allocator<Imf_3_2::(anonymous namespace)::TInSliceInfo *>>::_Vector_impl_data" }
%"struct.std::_Vector_base<Imf_3_2::(anonymous namespace)::TInSliceInfo *, std::allocator<Imf_3_2::(anonymous namespace)::TInSliceInfo *>>::_Vector_impl_data" = type { ptr, ptr, ptr }
%"class.std::vector.16" = type { %"struct.std::_Vector_base.17" }
%"struct.std::_Vector_base.17" = type { %"struct.std::_Vector_base<Imf_3_2::(anonymous namespace)::TileBuffer *, std::allocator<Imf_3_2::(anonymous namespace)::TileBuffer *>>::_Vector_impl" }
%"struct.std::_Vector_base<Imf_3_2::(anonymous namespace)::TileBuffer *, std::allocator<Imf_3_2::(anonymous namespace)::TileBuffer *>>::_Vector_impl" = type { %"struct.std::_Vector_base<Imf_3_2::(anonymous namespace)::TileBuffer *, std::allocator<Imf_3_2::(anonymous namespace)::TileBuffer *>>::_Vector_impl_data" }
%"struct.std::_Vector_base<Imf_3_2::(anonymous namespace)::TileBuffer *, std::allocator<Imf_3_2::(anonymous namespace)::TileBuffer *>>::_Vector_impl_data" = type { ptr, ptr, ptr }
%"class.Imf_3_2::Array" = type { i64, ptr }
%"class.Imf_3_2::DeepTiledInputFile" = type { %"class.Imf_3_2::GenericInputFile", ptr }
%"class.Imf_3_2::GenericInputFile" = type { ptr }

@_ZTIN7Iex_3_26ArgExcE = external constant ptr
@.str.68 = private unnamed_addr constant [26 x i8] c"Unknown LevelMode format.\00", align 1

; Function Attrs: mustprogress nounwind uwtable
define noundef i32 @_ZNK7Imf_3_218DeepTiledInputFile10numXLevelsEv(ptr noundef nonnull align 8 dereferenceable(16) %this) #5 align 2 {
entry:
  %this.addr = alloca ptr, align 8
  store ptr %this, ptr %this.addr, align 8
  %this1 = load ptr, ptr %this.addr, align 8
  %_data = getelementptr inbounds %"class.Imf_3_2::DeepTiledInputFile", ptr %this1, i32 0, i32 1
  %0 = load ptr, ptr %_data, align 8
  %numXLevels = getelementptr inbounds %"struct.Imf_3_2::DeepTiledInputFile::Data", ptr %0, i32 0, i32 11
  %1 = load i32, ptr %numXLevels, align 4
  ret i32 %1
}

; Function Attrs: mustprogress nounwind uwtable
define noundef i32 @_ZNK7Imf_3_218DeepTiledInputFile10numYLevelsEv(ptr noundef nonnull align 8 dereferenceable(16) %this) #5 align 2 {
entry:
  %this.addr = alloca ptr, align 8
  store ptr %this, ptr %this.addr, align 8
  %this1 = load ptr, ptr %this.addr, align 8
  %_data = getelementptr inbounds %"class.Imf_3_2::DeepTiledInputFile", ptr %this1, i32 0, i32 1
  %0 = load ptr, ptr %_data, align 8
  %numYLevels = getelementptr inbounds %"struct.Imf_3_2::DeepTiledInputFile::Data", ptr %0, i32 0, i32 12
  %1 = load i32, ptr %numYLevels, align 8
  ret i32 %1
}

; Function Attrs: mustprogress nounwind uwtable
define noundef i32 @_ZNK7Imf_3_218DeepTiledInputFile9levelModeEv(ptr noundef nonnull align 8 dereferenceable(16) %this) #5 align 2 {
entry:
  %this.addr = alloca ptr, align 8
  store ptr %this, ptr %this.addr, align 8
  %this1 = load ptr, ptr %this.addr, align 8
  %_data = getelementptr inbounds %"class.Imf_3_2::DeepTiledInputFile", ptr %this1, i32 0, i32 1
  %0 = load ptr, ptr %_data, align 8
  %tileDesc = getelementptr inbounds %"struct.Imf_3_2::DeepTiledInputFile::Data", ptr %0, i32 0, i32 2
  %mode = getelementptr inbounds %"class.Imf_3_2::TileDescription", ptr %tileDesc, i32 0, i32 2
  %1 = load i32, ptr %mode, align 8
  ret i32 %1
}

; Function Attrs: mustprogress uwtable
define noundef i64 @_ZNK7Imf_3_218DeepTiledInputFile10totalTilesEv(ptr noundef nonnull align 8 dereferenceable(16) %this) #4 align 2 personality ptr @__gxx_personality_v0 {
entry:
  %this.addr = alloca ptr, align 8
  %numAllTiles = alloca i32, align 4
  %i_l = alloca i32, align 4
  %i_ly = alloca i32, align 4
  %i_lx = alloca i32, align 4
  %exn.slot = alloca ptr, align 8
  %ehselector.slot = alloca i32, align 4
  store ptr %this, ptr %this.addr, align 8
  %this1 = load ptr, ptr %this.addr, align 8
  store i32 0, ptr %numAllTiles, align 4
  %call = call noundef i32 @_ZNK7Imf_3_218DeepTiledInputFile9levelModeEv(ptr noundef nonnull align 8 dereferenceable(16) %this1)
  switch i32 %call, label %sw.default [
    i32 0, label %sw.bb
    i32 1, label %sw.bb
    i32 2, label %sw.bb5
  ]

sw.bb:                                            ; preds = %entry, %entry
  store i32 0, ptr %i_l, align 4
  br label %for.cond

for.cond:                                         ; preds = %for.inc, %sw.bb
  %0 = load i32, ptr %i_l, align 4
  %call2 = call noundef i32 @_ZNK7Imf_3_218DeepTiledInputFile9numLevelsEv(ptr noundef nonnull align 8 dereferenceable(16) %this1)
  %cmp = icmp slt i32 %0, %call2
  br i1 %cmp, label %for.body, label %for.end

for.body:                                         ; preds = %for.cond
  %1 = load i32, ptr %i_l, align 4
  %call3 = call noundef i32 @_ZNK7Imf_3_218DeepTiledInputFile9numXTilesEi(ptr noundef nonnull align 8 dereferenceable(16) %this1, i32 noundef %1)
  %2 = load i32, ptr %i_l, align 4
  %call4 = call noundef i32 @_ZNK7Imf_3_218DeepTiledInputFile9numYTilesEi(ptr noundef nonnull align 8 dereferenceable(16) %this1, i32 noundef %2)
  %mul = mul nsw i32 %call3, %call4
  %3 = load i32, ptr %numAllTiles, align 4
  %add = add nsw i32 %3, %mul
  store i32 %add, ptr %numAllTiles, align 4
  br label %for.inc

for.inc:                                          ; preds = %for.body
  %4 = load i32, ptr %i_l, align 4
  %inc = add nsw i32 %4, 1
  store i32 %inc, ptr %i_l, align 4
  br label %for.cond, !llvm.loop !22

for.end:                                          ; preds = %for.cond
  br label %sw.epilog

sw.bb5:                                           ; preds = %entry
  store i32 0, ptr %i_ly, align 4
  br label %for.cond6

for.cond6:                                        ; preds = %for.inc21, %sw.bb5
  %5 = load i32, ptr %i_ly, align 4
  %call7 = call noundef i32 @_ZNK7Imf_3_218DeepTiledInputFile10numYLevelsEv(ptr noundef nonnull align 8 dereferenceable(16) %this1)
  %cmp8 = icmp slt i32 %5, %call7
  br i1 %cmp8, label %for.body9, label %for.end23

for.body9:                                        ; preds = %for.cond6
  store i32 0, ptr %i_lx, align 4
  br label %for.cond10

for.cond10:                                       ; preds = %for.inc18, %for.body9
  %6 = load i32, ptr %i_lx, align 4
  %call11 = call noundef i32 @_ZNK7Imf_3_218DeepTiledInputFile10numXLevelsEv(ptr noundef nonnull align 8 dereferenceable(16) %this1)
  %cmp12 = icmp slt i32 %6, %call11
  br i1 %cmp12, label %for.body13, label %for.end20

for.body13:                                       ; preds = %for.cond10
  %7 = load i32, ptr %i_lx, align 4
  %call14 = call noundef i32 @_ZNK7Imf_3_218DeepTiledInputFile9numXTilesEi(ptr noundef nonnull align 8 dereferenceable(16) %this1, i32 noundef %7)
  %8 = load i32, ptr %i_ly, align 4
  %call15 = call noundef i32 @_ZNK7Imf_3_218DeepTiledInputFile9numYTilesEi(ptr noundef nonnull align 8 dereferenceable(16) %this1, i32 noundef %8)
  %mul16 = mul nsw i32 %call14, %call15
  %9 = load i32, ptr %numAllTiles, align 4
  %add17 = add nsw i32 %9, %mul16
  store i32 %add17, ptr %numAllTiles, align 4
  br label %for.inc18

for.inc18:                                        ; preds = %for.body13
  %10 = load i32, ptr %i_lx, align 4
  %inc19 = add nsw i32 %10, 1
  store i32 %inc19, ptr %i_lx, align 4
  br label %for.cond10, !llvm.loop !23

for.end20:                                        ; preds = %for.cond10
  br label %for.inc21

for.inc21:                                        ; preds = %for.end20
  %11 = load i32, ptr %i_ly, align 4
  %inc22 = add nsw i32 %11, 1
  store i32 %inc22, ptr %i_ly, align 4
  br label %for.cond6, !llvm.loop !24

for.end23:                                        ; preds = %for.cond6
  br label %sw.epilog

sw.default:                                       ; preds = %entry
  %exception = call ptr @__cxa_allocate_exception(i64 72) #3
  invoke void @_ZN7Iex_3_26ArgExcC1EPKc(ptr noundef nonnull align 8 dereferenceable(72) %exception, ptr noundef @.str.68)
          to label %invoke.cont unwind label %lpad

invoke.cont:                                      ; preds = %sw.default
  call void @__cxa_throw(ptr %exception, ptr @_ZTIN7Iex_3_26ArgExcE, ptr @_ZN7Iex_3_26ArgExcD1Ev) #16
  unreachable

lpad:                                             ; preds = %sw.default
  %12 = landingpad { ptr, i32 }
          cleanup
  %13 = extractvalue { ptr, i32 } %12, 0
  store ptr %13, ptr %exn.slot, align 8
  %14 = extractvalue { ptr, i32 } %12, 1
  store i32 %14, ptr %ehselector.slot, align 4
  call void @__cxa_free_exception(ptr %exception) #3
  br label %eh.resume

sw.epilog:                                        ; preds = %for.end23, %for.end
  %15 = load i32, ptr %numAllTiles, align 4
  %conv = sext i32 %15 to i64
  ret i64 %conv

eh.resume:                                        ; preds = %lpad
  %exn = load ptr, ptr %exn.slot, align 8
  %sel = load i32, ptr %ehselector.slot, align 4
  %lpad.val = insertvalue { ptr, i32 } poison, ptr %exn, 0
  %lpad.val24 = insertvalue { ptr, i32 } %lpad.val, i32 %sel, 1
  resume { ptr, i32 } %lpad.val24
}