; Function Attrs: mustprogress uwtable
define noundef i64 @_ZNK7Imf_3_218DeepTiledInputFile10totalTilesEv(ptr nocapture noundef nonnull readonly align 8 dereferenceable(16) %this) local_unnamed_addr #3 align 2 personality ptr @__gxx_personality_v0 {
entry:
  %_iex_throw_s.i14 = alloca %"class.std::__cxx11::basic_stringstream", align 8
  %_iex_throw_s.i = alloca %"class.std::__cxx11::basic_stringstream", align 8
  %_data.i = getelementptr inbounds i8, ptr %this, i64 8
  %0 = load ptr, ptr %_data.i, align 8
  %mode.i = getelementptr inbounds i8, ptr %0, i64 104
  %1 = load i32, ptr %mode.i, align 8
  switch i32 %1, label %sw.default [
    i32 0, label %sw.bb
    i32 1, label %sw.bb
    i32 2, label %for.cond6.preheader
  ]

for.cond6.preheader:                              ; preds = %entry
  %numYLevels.i = getelementptr inbounds i8, ptr %0, i64 248
  %2 = load i32, ptr %numYLevels.i, align 8
  %cmp848 = icmp sgt i32 %2, 0
  br i1 %cmp848, label %for.cond10.preheader.lr.ph, label %sw.epilog

for.cond10.preheader.lr.ph:                       ; preds = %for.cond6.preheader
  %numXLevels.i = getelementptr inbounds i8, ptr %0, i64 244
  %numXTiles.i = getelementptr inbounds i8, ptr %0, i64 256
  %numYTiles.i = getelementptr inbounds i8, ptr %0, i64 264
  %3 = load i32, ptr %numXLevels.i, align 4
  %4 = icmp sgt i32 %3, 0
  br i1 %4, label %for.cond10.preheader.preheader, label %sw.epilog

for.cond10.preheader.preheader:                   ; preds = %for.cond10.preheader.lr.ph
  %5 = zext nneg i32 %3 to i64
  %6 = zext nneg i32 %2 to i64
  %7 = zext nneg i32 %3 to i64
  br label %for.body13.lr.ph

sw.bb:                                            ; preds = %entry, %entry
  %call252 = tail call noundef i32 @_ZNK7Imf_3_218DeepTiledInputFile9numLevelsEv(ptr noundef nonnull align 8 dereferenceable(16) %this)
  %cmp53 = icmp sgt i32 %call252, 0
  br i1 %cmp53, label %for.body, label %sw.epilog

for.body:                                         ; preds = %sw.bb, %for.body
  %numAllTiles.055 = phi i32 [ %add, %for.body ], [ 0, %sw.bb ]
  %i_l.054 = phi i32 [ %inc, %for.body ], [ 0, %sw.bb ]
  %call3 = tail call noundef i32 @_ZNK7Imf_3_218DeepTiledInputFile9numXTilesEi(ptr noundef nonnull align 8 dereferenceable(16) %this, i32 noundef %i_l.054)
  %call4 = tail call noundef i32 @_ZNK7Imf_3_218DeepTiledInputFile9numYTilesEi(ptr noundef nonnull align 8 dereferenceable(16) %this, i32 noundef %i_l.054)
  %mul = mul nsw i32 %call4, %call3
  %add = add nsw i32 %mul, %numAllTiles.055
  %inc = add nuw nsw i32 %i_l.054, 1
  %call2 = tail call noundef i32 @_ZNK7Imf_3_218DeepTiledInputFile9numLevelsEv(ptr noundef nonnull align 8 dereferenceable(16) %this)
  %cmp = icmp slt i32 %inc, %call2
  br i1 %cmp, label %for.body, label %sw.epilog, !llvm.loop !27

for.body13.lr.ph:                                 ; preds = %for.inc21, %for.cond10.preheader.preheader
  %indvars.iv60 = phi i64 [ 0, %for.cond10.preheader.preheader ], [ %indvars.iv.next61, %for.inc21 ]
  %numAllTiles.150 = phi i32 [ 0, %for.cond10.preheader.preheader ], [ %add17, %for.inc21 ]
  %cmp2.not.i17 = icmp ult i64 %indvars.iv60, %6
  br label %for.body13

for.body13:                                       ; preds = %for.body13.lr.ph, %_ZNK7Imf_3_218DeepTiledInputFile9numYTilesEi.exit
  %indvars.iv = phi i64 [ 0, %for.body13.lr.ph ], [ %indvars.iv.next, %_ZNK7Imf_3_218DeepTiledInputFile9numYTilesEi.exit ]
  %numAllTiles.247 = phi i32 [ %numAllTiles.150, %for.body13.lr.ph ], [ %add17, %_ZNK7Imf_3_218DeepTiledInputFile9numYTilesEi.exit ]
  call void @llvm.lifetime.start.p0(i64 392, ptr nonnull %_iex_throw_s.i)
  %cmp2.not.i = icmp ult i64 %indvars.iv, %5
  br i1 %cmp2.not.i, label %_ZNK7Imf_3_218DeepTiledInputFile9numXTilesEi.exit, label %do.body.i

do.body.i:                                        ; preds = %for.body13
  tail call void @_Z13iex_debugTrapv()
  call void @_ZNSt7__cxx1118basic_stringstreamIcSt11char_traitsIcESaIcEEC1Ev(ptr noundef nonnull align 8 dereferenceable(128) %_iex_throw_s.i)
  %add.ptr.i = getelementptr inbounds i8, ptr %_iex_throw_s.i, i64 16
  %call.i = invoke noundef nonnull align 8 dereferenceable(8) ptr @_ZStlsISt11char_traitsIcEERSt13basic_ostreamIcT_ES5_PKc(ptr noundef nonnull align 8 dereferenceable(8) %add.ptr.i, ptr noundef nonnull @.str.43)
          to label %invoke.cont.i unwind label %lpad.i

invoke.cont.i:                                    ; preds = %do.body.i
  %8 = load ptr, ptr %_data.i, align 8
  %_streamData.i = getelementptr inbounds i8, ptr %8, i64 472
  %9 = load ptr, ptr %_streamData.i, align 8
  %is.i = getelementptr inbounds i8, ptr %9, i64 40
  %10 = load ptr, ptr %is.i, align 8
  %call5.i = invoke noundef ptr @_ZNK7Imf_3_27IStream8fileNameEv(ptr noundef nonnull align 8 dereferenceable(40) %10)
          to label %invoke.cont4.i unwind label %lpad.i

invoke.cont4.i:                                   ; preds = %invoke.cont.i
  %call7.i = invoke noundef nonnull align 8 dereferenceable(8) ptr @_ZStlsISt11char_traitsIcEERSt13basic_ostreamIcT_ES5_PKc(ptr noundef nonnull align 8 dereferenceable(8) %call.i, ptr noundef %call5.i)
          to label %invoke.cont6.i unwind label %lpad.i

invoke.cont6.i:                                   ; preds = %invoke.cont4.i
  %call9.i = invoke noundef nonnull align 8 dereferenceable(8) ptr @_ZStlsISt11char_traitsIcEERSt13basic_ostreamIcT_ES5_PKc(ptr noundef nonnull align 8 dereferenceable(8) %call7.i, ptr noundef nonnull @.str.44)
          to label %invoke.cont8.i unwind label %lpad.i

invoke.cont8.i:                                   ; preds = %invoke.cont6.i
  %exception.i = call ptr @__cxa_allocate_exception(i64 72) #20
  invoke void @_ZN7Iex_3_26ArgExcC1ERNSt7__cxx1118basic_stringstreamIcSt11char_traitsIcESaIcEEE(ptr noundef nonnull align 8 dereferenceable(72) %exception.i, ptr noundef nonnull align 8 dereferenceable(128) %_iex_throw_s.i)
          to label %invoke.cont11.i unwind label %lpad10.i

invoke.cont11.i:                                  ; preds = %invoke.cont8.i
  invoke void @__cxa_throw(ptr nonnull %exception.i, ptr nonnull @_ZTIN7Iex_3_26ArgExcE, ptr nonnull @_ZN7Iex_3_26ArgExcD1Ev) #24
          to label %unreachable.i unwind label %lpad.i

lpad.i:                                           ; preds = %invoke.cont11.i, %invoke.cont6.i, %invoke.cont4.i, %invoke.cont.i, %do.body.i
  %11 = landingpad { ptr, i32 }
          cleanup
  br label %ehcleanup.i

lpad10.i:                                         ; preds = %invoke.cont8.i
  %12 = landingpad { ptr, i32 }
          cleanup
  call void @__cxa_free_exception(ptr %exception.i) #20
  br label %ehcleanup.i

common.resume:                                    ; preds = %lpad, %ehcleanup.i22, %ehcleanup.i
  %common.resume.op = phi { ptr, i32 } [ %.pn.i, %ehcleanup.i ], [ %.pn.i23, %ehcleanup.i22 ], [ %22, %lpad ]
  resume { ptr, i32 } %common.resume.op

ehcleanup.i:                                      ; preds = %lpad10.i, %lpad.i
  %.pn.i = phi { ptr, i32 } [ %11, %lpad.i ], [ %12, %lpad10.i ]
  call void @_ZNSt7__cxx1118basic_stringstreamIcSt11char_traitsIcESaIcEED1Ev(ptr noundef nonnull align 8 dereferenceable(128) %_iex_throw_s.i) #20
  br label %common.resume

unreachable.i:                                    ; preds = %invoke.cont11.i
  unreachable

_ZNK7Imf_3_218DeepTiledInputFile9numXTilesEi.exit: ; preds = %for.body13
  %13 = load ptr, ptr %numXTiles.i, align 8
  %arrayidx.i = getelementptr inbounds i32, ptr %13, i64 %indvars.iv
  %14 = load i32, ptr %arrayidx.i, align 4
  call void @llvm.lifetime.end.p0(i64 392, ptr nonnull %_iex_throw_s.i)
  call void @llvm.lifetime.start.p0(i64 392, ptr nonnull %_iex_throw_s.i14)
  br i1 %cmp2.not.i17, label %_ZNK7Imf_3_218DeepTiledInputFile9numYTilesEi.exit, label %do.body.i18

do.body.i18:                                      ; preds = %_ZNK7Imf_3_218DeepTiledInputFile9numXTilesEi.exit
  tail call void @_Z13iex_debugTrapv()
  call void @_ZNSt7__cxx1118basic_stringstreamIcSt11char_traitsIcESaIcEEC1Ev(ptr noundef nonnull align 8 dereferenceable(128) %_iex_throw_s.i14)
  %add.ptr.i19 = getelementptr inbounds i8, ptr %_iex_throw_s.i14, i64 16
  %call.i20 = invoke noundef nonnull align 8 dereferenceable(8) ptr @_ZStlsISt11char_traitsIcEERSt13basic_ostreamIcT_ES5_PKc(ptr noundef nonnull align 8 dereferenceable(8) %add.ptr.i19, ptr noundef nonnull @.str.45)
          to label %invoke.cont.i24 unwind label %lpad.i21

invoke.cont.i24:                                  ; preds = %do.body.i18
  %15 = load ptr, ptr %_data.i, align 8
  %_streamData.i26 = getelementptr inbounds i8, ptr %15, i64 472
  %16 = load ptr, ptr %_streamData.i26, align 8
  %is.i27 = getelementptr inbounds i8, ptr %16, i64 40
  %17 = load ptr, ptr %is.i27, align 8
  %call5.i28 = invoke noundef ptr @_ZNK7Imf_3_27IStream8fileNameEv(ptr noundef nonnull align 8 dereferenceable(40) %17)
          to label %invoke.cont4.i29 unwind label %lpad.i21

invoke.cont4.i29:                                 ; preds = %invoke.cont.i24
  %call7.i30 = invoke noundef nonnull align 8 dereferenceable(8) ptr @_ZStlsISt11char_traitsIcEERSt13basic_ostreamIcT_ES5_PKc(ptr noundef nonnull align 8 dereferenceable(8) %call.i20, ptr noundef %call5.i28)
          to label %invoke.cont6.i31 unwind label %lpad.i21

invoke.cont6.i31:                                 ; preds = %invoke.cont4.i29
  %call9.i32 = invoke noundef nonnull align 8 dereferenceable(8) ptr @_ZStlsISt11char_traitsIcEERSt13basic_ostreamIcT_ES5_PKc(ptr noundef nonnull align 8 dereferenceable(8) %call7.i30, ptr noundef nonnull @.str.44)
          to label %invoke.cont8.i33 unwind label %lpad.i21

invoke.cont8.i33:                                 ; preds = %invoke.cont6.i31
  %exception.i34 = call ptr @__cxa_allocate_exception(i64 72) #20
  invoke void @_ZN7Iex_3_26ArgExcC1ERNSt7__cxx1118basic_stringstreamIcSt11char_traitsIcESaIcEEE(ptr noundef nonnull align 8 dereferenceable(72) %exception.i34, ptr noundef nonnull align 8 dereferenceable(128) %_iex_throw_s.i14)
          to label %invoke.cont11.i36 unwind label %lpad10.i35

invoke.cont11.i36:                                ; preds = %invoke.cont8.i33
  invoke void @__cxa_throw(ptr nonnull %exception.i34, ptr nonnull @_ZTIN7Iex_3_26ArgExcE, ptr nonnull @_ZN7Iex_3_26ArgExcD1Ev) #24
          to label %unreachable.i37 unwind label %lpad.i21

lpad.i21:                                         ; preds = %invoke.cont11.i36, %invoke.cont6.i31, %invoke.cont4.i29, %invoke.cont.i24, %do.body.i18
  %18 = landingpad { ptr, i32 }
          cleanup
  br label %ehcleanup.i22

lpad10.i35:                                       ; preds = %invoke.cont8.i33
  %19 = landingpad { ptr, i32 }
          cleanup
  call void @__cxa_free_exception(ptr %exception.i34) #20
  br label %ehcleanup.i22

ehcleanup.i22:                                    ; preds = %lpad10.i35, %lpad.i21
  %.pn.i23 = phi { ptr, i32 } [ %18, %lpad.i21 ], [ %19, %lpad10.i35 ]
  call void @_ZNSt7__cxx1118basic_stringstreamIcSt11char_traitsIcESaIcEED1Ev(ptr noundef nonnull align 8 dereferenceable(128) %_iex_throw_s.i14) #20
  br label %common.resume

unreachable.i37:                                  ; preds = %invoke.cont11.i36
  unreachable

_ZNK7Imf_3_218DeepTiledInputFile9numYTilesEi.exit: ; preds = %_ZNK7Imf_3_218DeepTiledInputFile9numXTilesEi.exit
  %20 = load ptr, ptr %numYTiles.i, align 8
  %arrayidx.i39 = getelementptr inbounds i32, ptr %20, i64 %indvars.iv60
  %21 = load i32, ptr %arrayidx.i39, align 4
  call void @llvm.lifetime.end.p0(i64 392, ptr nonnull %_iex_throw_s.i14)
  %mul16 = mul nsw i32 %21, %14
  %add17 = add nsw i32 %mul16, %numAllTiles.247
  %indvars.iv.next = add nuw nsw i64 %indvars.iv, 1
  %cmp12 = icmp ult i64 %indvars.iv.next, %7
  br i1 %cmp12, label %for.body13, label %for.inc21, !llvm.loop !28

for.inc21:                                        ; preds = %_ZNK7Imf_3_218DeepTiledInputFile9numYTilesEi.exit
  %indvars.iv.next61 = add nuw nsw i64 %indvars.iv60, 1
  %cmp8 = icmp ult i64 %indvars.iv.next61, %6
  br i1 %cmp8, label %for.body13.lr.ph, label %sw.epilog, !llvm.loop !29

sw.default:                                       ; preds = %entry
  %exception = tail call ptr @__cxa_allocate_exception(i64 72) #20
  invoke void @_ZN7Iex_3_26ArgExcC1EPKc(ptr noundef nonnull align 8 dereferenceable(72) %exception, ptr noundef nonnull @.str.68)
          to label %invoke.cont unwind label %lpad

invoke.cont:                                      ; preds = %sw.default
  tail call void @__cxa_throw(ptr nonnull %exception, ptr nonnull @_ZTIN7Iex_3_26ArgExcE, ptr nonnull @_ZN7Iex_3_26ArgExcD1Ev) #24
  unreachable

lpad:                                             ; preds = %sw.default
  %22 = landingpad { ptr, i32 }
          cleanup
  tail call void @__cxa_free_exception(ptr %exception) #20
  br label %common.resume

sw.epilog:                                        ; preds = %for.inc21, %for.body, %for.cond10.preheader.lr.ph, %for.cond6.preheader, %sw.bb
  %numAllTiles.3 = phi i32 [ 0, %sw.bb ], [ 0, %for.cond6.preheader ], [ 0, %for.cond10.preheader.lr.ph ], [ %add, %for.body ], [ %add17, %for.inc21 ]
  %conv = sext i32 %numAllTiles.3 to i64
  ret i64 %conv
}